target datalayout = "e-m:e-p270:32:32-p271:32:32-p272:64:64-i64:64-i128:128-f80:128-n8:16:32:64-S128"
target triple = "x86_64-unknown-linux-gnu"

@.str.17 = private unnamed_addr constant [8 x i8] c"Raw add\00", align 1
@.str.18 = private unnamed_addr constant [11 x i8] c"Raw remove\00", align 1
@.str.19 = private unnamed_addr constant [17 x i8] c"Raw empty remove\00", align 1
@.str.20 = private unnamed_addr constant [16 x i8] c"Single-threaded\00", align 1
@.str.21 = private unnamed_addr constant [11 x i8] c"Mostly add\00", align 1
@.str.22 = private unnamed_addr constant [14 x i8] c"Mostly remove\00", align 1
@.str.23 = private unnamed_addr constant [17 x i8] c"Heavy concurrent\00", align 1
@.str.24 = private unnamed_addr constant [18 x i8] c"Random concurrent\00", align 1
@.str.25 = private unnamed_addr constant [1 x i8] zeroinitializer, align 1

; Function Attrs: mustprogress nounwind uwtable
define dso_local noundef ptr @_Z13benchmarkName13BenchmarkType(i32 noundef %benchmark) #6 {
entry:
  %retval = alloca ptr, align 8
  %benchmark.addr = alloca i32, align 4
  store i32 %benchmark, ptr %benchmark.addr, align 4
  %0 = load i32, ptr %benchmark.addr, align 4
  switch i32 %0, label %sw.default [
    i32 0, label %sw.bb
    i32 1, label %sw.bb1
    i32 2, label %sw.bb2
    i32 3, label %sw.bb3
    i32 4, label %sw.bb4
    i32 5, label %sw.bb5
    i32 6, label %sw.bb6
    i32 7, label %sw.bb7
  ]

sw.bb:                                            ; preds = %entry
  store ptr @.str.17, ptr %retval, align 8
  br label %return

sw.bb1:                                           ; preds = %entry
  store ptr @.str.18, ptr %retval, align 8
  br label %return

sw.bb2:                                           ; preds = %entry
  store ptr @.str.19, ptr %retval, align 8
  br label %return

sw.bb3:                                           ; preds = %entry
  store ptr @.str.20, ptr %retval, align 8
  br label %return

sw.bb4:                                           ; preds = %entry
  store ptr @.str.21, ptr %retval, align 8
  br label %return

sw.bb5:                                           ; preds = %entry
  store ptr @.str.22, ptr %retval, align 8
  br label %return

sw.bb6:                                           ; preds = %entry
  store ptr @.str.23, ptr %retval, align 8
  br label %return

sw.bb7:                                           ; preds = %entry
  store ptr @.str.24, ptr %retval, align 8
  br label %return

sw.default:                                       ; preds = %entry
  store ptr @.str.25, ptr %retval, align 8
  br label %return

return:                                           ; preds = %sw.default, %sw.bb7, %sw.bb6, %sw.bb5, %sw.bb4, %sw.bb3, %sw.bb2, %sw.bb1, %sw.bb
  %1 = load ptr, ptr %retval, align 8
  ret ptr %1
}