; Function Attrs: mustprogress nofree norecurse nosync nounwind willreturn memory(none) uwtable
define dso_local noundef nonnull ptr @_Z13benchmarkName13BenchmarkType(i32 noundef %benchmark) local_unnamed_addr #5 {
entry:
  %0 = icmp ult i32 %benchmark, 8
  br i1 %0, label %switch.lookup, label %return

switch.lookup:                                    ; preds = %entry
  %1 = zext nneg i32 %benchmark to i64
  %switch.gep = getelementptr inbounds [8 x ptr], ptr @switch.table._Z13benchmarkName13BenchmarkType, i64 0, i64 %1
  %switch.load = load ptr, ptr %switch.gep, align 8
  br label %return

return:                                           ; preds = %entry, %switch.lookup
  %retval.0 = phi ptr [ %switch.load, %switch.lookup ], [ @.str.25, %entry ]
  ret ptr %retval.0
}